; Function Attrs: mustprogress nofree norecurse nosync nounwind willreturn memory(argmem: read) uwtable
define noundef zeroext range(i8 0, 4) i8 @_ZN9grpc_core24ValidateHeaderKeyIsLegalESt17basic_string_viewIcSt11char_traitsIcEE(i64 %0, ptr readonly %1) local_unnamed_addr #3 {
  %3 = icmp eq i64 %0, 0
  br i1 %3, label %_ZN9grpc_core12_GLOBAL__N_110ConformsToESt17basic_string_viewIcSt11char_traitsIcEERKNS_6BitSetILm256ELm64EEENS_22ValidateMetadataResultE.exit, label %4

4:                                                ; preds = %2
  %5 = icmp ugt i64 %0, 4294967295
  br i1 %5, label %_ZN9grpc_core12_GLOBAL__N_110ConformsToESt17basic_string_viewIcSt11char_traitsIcEERKNS_6BitSetILm256ELm64EEENS_22ValidateMetadataResultE.exit, label %6

6:                                                ; preds = %4
  %7 = getelementptr inbounds nuw i8, ptr %1, i64 %0
  br label %.lr.ph.i

8:                                                ; preds = %.lr.ph.i
  %9 = getelementptr inbounds nuw i8, ptr %.01317.i, i64 1
  %.not.i = icmp eq ptr %9, %7
  br i1 %.not.i, label %_ZN9grpc_core12_GLOBAL__N_110ConformsToESt17basic_string_viewIcSt11char_traitsIcEERKNS_6BitSetILm256ELm64EEENS_22ValidateMetadataResultE.exit, label %.lr.ph.i

.lr.ph.i:                                         ; preds = %6, %8
  %.01317.i = phi ptr [ %9, %8 ], [ %1, %6 ]
  %10 = load i8, ptr %.01317.i, align 1, !tbaa !3
  %11 = zext i8 %10 to i64
  %12 = lshr i64 %11, 6
  %13 = getelementptr inbounds nuw [4 x i64], ptr @_ZN9grpc_core12_GLOBAL__N_123g_legal_header_key_bitsE, i64 0, i64 %12
  %14 = load i64, ptr %13, align 8, !tbaa !6
  %15 = and i64 %11, 63
  %16 = shl nuw i64 1, %15
  %17 = and i64 %16, %14
  %.not15.i = icmp eq i64 %17, 0
  br i1 %.not15.i, label %_ZN9grpc_core12_GLOBAL__N_110ConformsToESt17basic_string_viewIcSt11char_traitsIcEERKNS_6BitSetILm256ELm64EEENS_22ValidateMetadataResultE.exit, label %8

_ZN9grpc_core12_GLOBAL__N_110ConformsToESt17basic_string_viewIcSt11char_traitsIcEERKNS_6BitSetILm256ELm64EEENS_22ValidateMetadataResultE.exit: ; preds = %.lr.ph.i, %8, %4, %2
  %.0 = phi i8 [ 1, %2 ], [ 2, %4 ], [ 3, %.lr.ph.i ], [ 0, %8 ]
  ret i8 %.0
}